; Function Attrs: mustprogress uwtable
define internal void @"_ZNSt17_Function_handlerIFN7rocksdb6StatusERKNS0_13ConfigOptionsERKNSt7__cxx1112basic_stringIcSt11char_traitsIcESaIcEEESC_PvENS0_3$_3EE9_M_invokeERKSt9_Any_dataS4_SC_SC_OSD_"(ptr dead_on_unwind noalias writable writeonly sret(%"class.rocksdb::Status") align 8 captures(none) initializes((0, 6), (8, 16)) %0, ptr nonnull readnone align 8 captures(none) %1, ptr nonnull readnone align 8 captures(none) %2, ptr nonnull readnone align 8 captures(none) %3, ptr noundef nonnull align 8 dereferenceable(32) %4, ptr noundef nonnull readonly align 8 captures(none) dereferenceable(8) %5) #6 align 2 personality ptr @__gxx_personality_v0 {
  %.val = load ptr, ptr %5, align 8, !tbaa !64
  tail call void @llvm.experimental.noalias.scope.decl(metadata !683)
  tail call void @llvm.experimental.noalias.scope.decl(metadata !686)
  tail call void @llvm.experimental.noalias.scope.decl(metadata !689)
  %7 = tail call noundef i64 @_ZN7rocksdb11ParseUint64ERKNSt7__cxx1112basic_stringIcSt11char_traitsIcESaIcEEE(ptr noundef nonnull align 8 dereferenceable(32) %4), !noalias !692
  %8 = tail call noundef ptr @_ZN7rocksdb21NewGenericRateLimiterElliNS_11RateLimiter4ModeEbl(i64 noundef %7, i64 noundef 100000, i32 noundef 10, i32 noundef 1, i1 noundef zeroext false, i64 noundef 0), !noalias !692
  tail call void @_ZNSt12__shared_ptrIN7rocksdb11RateLimiterELN9__gnu_cxx12_Lock_policyE2EE5resetIS1_EENSt9enable_ifIXsr21__sp_is_constructibleIS1_T_EE5valueEvE4typeEPS7_(ptr noundef nonnull align 8 dereferenceable(16) %.val, ptr noundef %8), !noalias !692
  %9 = getelementptr inbounds nuw i8, ptr %0, i64 8
  store ptr null, ptr %9, align 8, !tbaa !509, !alias.scope !693
  tail call void @llvm.memset.p0.i64(ptr noundef nonnull align 8 dereferenceable(16) %0, i8 0, i64 6, i1 false), !alias.scope !693
  ret void
}